target datalayout = "e-m:e-p270:32:32-p271:32:32-p272:64:64-i64:64-i128:128-f80:128-n8:16:32:64-S128"
target triple = "x86_64-pc-linux-gnu"

%struct.AVFormatContext = type { ptr, ptr, ptr, ptr, ptr, i32, i32, ptr, i32, ptr, i32, ptr, ptr, i64, i64, i64, i32, i32, i32, i64, i64, ptr, i32, i32, ptr, i32, i32, i32, i32, ptr, i64, i32, i32, %struct.AVIOInterruptCB, i32, i32, i32, i32, i64, i32, i32, i32, i32, i32, i32, i32, i32, i32, i32, i32, i32, i64, i32, i32, i32, i32, i32, ptr, ptr, ptr, ptr, i32, ptr, ptr, ptr, ptr, i32, ptr, ptr, i64, ptr, ptr, ptr, i64 }
%struct.AVIOInterruptCB = type { ptr, ptr }
%struct.video_data = type { ptr, i32, i32, i32, i32, i32, i32, i32, i32, ptr, i64, i32, i32, i32, i32, ptr, ptr, ptr, i64, i32, ptr, i32, i32, ptr, i32, ptr, ptr, ptr, ptr, ptr, ptr, ptr }
%struct.v4l2_capability = type { [16 x i8], [32 x i8], [32 x i8], i32, i32, i32, [3 x i32] }
%struct.dirent = type { i64, i64, i16, i8, [256 x i8] }
%struct.AVDeviceInfo = type { ptr, ptr, ptr, i32 }
%struct.AVDeviceInfoList = type { ptr, i32, i32 }

@.str.51 = private unnamed_addr constant [28 x i8] c"ioctl(VIDIOC_QUERYCAP): %s\0A\00", align 1
@.str.107 = private unnamed_addr constant [5 x i8] c"/dev\00", align 1
@.str.108 = private unnamed_addr constant [33 x i8] c"Couldn't open the directory: %s\0A\00", align 1
@.str.109 = private unnamed_addr constant [8 x i8] c"/dev/%s\00", align 1
@.str.110 = private unnamed_addr constant [23 x i8] c"Device name too long.\0A\00", align 1
@.str.111 = private unnamed_addr constant [6 x i8] c"video\00", align 1
@.str.112 = private unnamed_addr constant [6 x i8] c"radio\00", align 1
@.str.113 = private unnamed_addr constant [4 x i8] c"vbi\00", align 1
@.str.114 = private unnamed_addr constant [11 x i8] c"v4l-subdev\00", align 1

; Function Attrs: nounwind uwtable
define internal i32 @v4l2_is_v4l_dev(ptr noundef %0) #0 {
  %2 = alloca ptr, align 8
  store ptr %0, ptr %2, align 8, !tbaa !102
  %3 = load ptr, ptr %2, align 8, !tbaa !102
  %4 = call i32 @strncmp(ptr noundef %3, ptr noundef @.str.111, i64 noundef 5) #13
  %5 = icmp ne i32 %4, 0
  br i1 %5, label %6, label %19

6:                                                ; preds = %1
  %7 = load ptr, ptr %2, align 8, !tbaa !102
  %8 = call i32 @strncmp(ptr noundef %7, ptr noundef @.str.112, i64 noundef 5) #13
  %9 = icmp ne i32 %8, 0
  br i1 %9, label %10, label %19

10:                                               ; preds = %6
  %11 = load ptr, ptr %2, align 8, !tbaa !102
  %12 = call i32 @strncmp(ptr noundef %11, ptr noundef @.str.113, i64 noundef 3) #13
  %13 = icmp ne i32 %12, 0
  br i1 %13, label %14, label %19

14:                                               ; preds = %10
  %15 = load ptr, ptr %2, align 8, !tbaa !102
  %16 = call i32 @strncmp(ptr noundef %15, ptr noundef @.str.114, i64 noundef 10) #13
  %17 = icmp ne i32 %16, 0
  %18 = xor i1 %17, true
  br label %19

19:                                               ; preds = %14, %10, %6, %1
  %20 = phi i1 [ true, %10 ], [ true, %6 ], [ true, %1 ], [ %18, %14 ]
  %21 = zext i1 %20 to i32
  ret i32 %21
}

; Function Attrs: inlinehint nounwind uwtable
define internal ptr @av_make_error_string(ptr noundef %0, i64 noundef %1, i32 noundef %2) #5 {
  %4 = alloca ptr, align 8
  %5 = alloca i64, align 8
  %6 = alloca i32, align 4
  store ptr %0, ptr %4, align 8, !tbaa !102
  store i64 %1, ptr %5, align 8, !tbaa !113
  store i32 %2, ptr %6, align 4, !tbaa !32
  %7 = load i32, ptr %6, align 4, !tbaa !32
  %8 = load ptr, ptr %4, align 8, !tbaa !102
  %9 = load i64, ptr %5, align 8, !tbaa !113
  %10 = call i32 @av_strerror(i32 noundef %7, ptr noundef %8, i64 noundef %9)
  %11 = load ptr, ptr %4, align 8, !tbaa !102
  ret ptr %11
}

; Function Attrs: nounwind uwtable
define internal i32 @v4l2_get_device_list(ptr noundef %0, ptr noundef %1) #0 {
  %3 = alloca i32, align 4
  %4 = alloca ptr, align 8
  %5 = alloca ptr, align 8
  %6 = alloca ptr, align 8
  %7 = alloca ptr, align 8
  %8 = alloca ptr, align 8
  %9 = alloca i32, align 4
  %10 = alloca i32, align 4
  %11 = alloca [64 x i8], align 1
  %12 = alloca ptr, align 8
  %13 = alloca %struct.v4l2_capability, align 4
  %14 = alloca i32, align 4
  %15 = alloca i32, align 4
  %16 = alloca [256 x i8], align 16
  %17 = alloca [64 x i8], align 1
  store ptr %0, ptr %4, align 8, !tbaa !13
  store ptr %1, ptr %5, align 8, !tbaa !89
  call void @llvm.lifetime.start.p0(i64 8, ptr %6) #10
  %18 = load ptr, ptr %4, align 8, !tbaa !13
  %19 = getelementptr inbounds nuw %struct.AVFormatContext, ptr %18, i32 0, i32 3
  %20 = load ptr, ptr %19, align 8, !tbaa !15
  store ptr %20, ptr %6, align 8, !tbaa !30
  call void @llvm.lifetime.start.p0(i64 8, ptr %7) #10
  call void @llvm.lifetime.start.p0(i64 8, ptr %8) #10
  call void @llvm.lifetime.start.p0(i64 4, ptr %9) #10
  store i32 0, ptr %9, align 4, !tbaa !32
  %21 = load ptr, ptr %5, align 8, !tbaa !89
  %22 = icmp ne ptr %21, null
  br i1 %22, label %24, label %23

23:                                               ; preds = %2
  store i32 -22, ptr %3, align 4
  store i32 1, ptr %10, align 4
  br label %141

24:                                               ; preds = %2
  %25 = call noalias ptr @opendir(ptr noundef @.str.107)
  store ptr %25, ptr %7, align 8, !tbaa !91
  %26 = load ptr, ptr %7, align 8, !tbaa !91
  %27 = icmp ne ptr %26, null
  br i1 %27, label %37, label %28

28:                                               ; preds = %24
  %29 = call ptr @__errno_location() #11
  %30 = load i32, ptr %29, align 4, !tbaa !32
  %31 = sub nsw i32 0, %30
  store i32 %31, ptr %9, align 4, !tbaa !32
  %32 = load ptr, ptr %4, align 8, !tbaa !13
  call void @llvm.memset.p0.i64(ptr align 1 %11, i8 0, i64 64, i1 false)
  %33 = getelementptr inbounds [64 x i8], ptr %11, i64 0, i64 0
  %34 = load i32, ptr %9, align 4, !tbaa !32
  %35 = call ptr @av_make_error_string(ptr noundef %33, i64 noundef 64, i32 noundef %34)
  call void (ptr, i32, ptr, ...) @av_log(ptr noundef %32, i32 noundef 16, ptr noundef @.str.108, ptr noundef %35)
  %36 = load i32, ptr %9, align 4, !tbaa !32
  store i32 %36, ptr %3, align 4
  store i32 1, ptr %10, align 4
  br label %141

37:                                               ; preds = %24
  br label %38

38:                                               ; preds = %135, %37
  %39 = load ptr, ptr %7, align 8, !tbaa !91
  %40 = call ptr @readdir64(ptr noundef %39)
  store ptr %40, ptr %8, align 8, !tbaa !93
  %41 = icmp ne ptr %40, null
  br i1 %41, label %42, label %137

42:                                               ; preds = %38
  call void @llvm.lifetime.start.p0(i64 8, ptr %12) #10
  store ptr null, ptr %12, align 8, !tbaa !95
  call void @llvm.lifetime.start.p0(i64 104, ptr %13) #10
  call void @llvm.lifetime.start.p0(i64 4, ptr %14) #10
  store i32 -1, ptr %14, align 4, !tbaa !32
  call void @llvm.lifetime.start.p0(i64 4, ptr %15) #10
  call void @llvm.lifetime.start.p0(i64 256, ptr %16) #10
  %43 = load ptr, ptr %8, align 8, !tbaa !93
  %44 = getelementptr inbounds nuw %struct.dirent, ptr %43, i32 0, i32 4
  %45 = getelementptr inbounds [256 x i8], ptr %44, i64 0, i64 0
  %46 = call i32 @v4l2_is_v4l_dev(ptr noundef %45)
  %47 = icmp ne i32 %46, 0
  br i1 %47, label %49, label %48

48:                                               ; preds = %42
  store i32 2, ptr %10, align 4
  br label %135, !llvm.loop !97

49:                                               ; preds = %42
  %50 = getelementptr inbounds [256 x i8], ptr %16, i64 0, i64 0
  %51 = load ptr, ptr %8, align 8, !tbaa !93
  %52 = getelementptr inbounds nuw %struct.dirent, ptr %51, i32 0, i32 4
  %53 = getelementptr inbounds [256 x i8], ptr %52, i64 0, i64 0
  %54 = call i32 (ptr, i64, ptr, ...) @snprintf(ptr noundef %50, i64 noundef 256, ptr noundef @.str.109, ptr noundef %53) #10
  store i32 %54, ptr %15, align 4, !tbaa !32
  %55 = load i32, ptr %15, align 4, !tbaa !32
  %56 = sext i32 %55 to i64
  %57 = icmp uge i64 %56, 256
  br i1 %57, label %58, label %60

58:                                               ; preds = %49
  %59 = load ptr, ptr %4, align 8, !tbaa !13
  call void (ptr, i32, ptr, ...) @av_log(ptr noundef %59, i32 noundef 16, ptr noundef @.str.110)
  store i32 -38, ptr %9, align 4, !tbaa !32
  store i32 3, ptr %10, align 4
  br label %135

60:                                               ; preds = %49
  %61 = load ptr, ptr %4, align 8, !tbaa !13
  %62 = getelementptr inbounds [256 x i8], ptr %16, i64 0, i64 0
  %63 = call i32 @device_open(ptr noundef %61, ptr noundef %62)
  store i32 %63, ptr %14, align 4, !tbaa !32
  %64 = icmp slt i32 %63, 0
  br i1 %64, label %65, label %66

65:                                               ; preds = %60
  store i32 2, ptr %10, align 4
  br label %135, !llvm.loop !97

66:                                               ; preds = %60
  %67 = load ptr, ptr %6, align 8, !tbaa !30
  %68 = getelementptr inbounds nuw %struct.video_data, ptr %67, i32 0, i32 28
  %69 = load ptr, ptr %68, align 8, !tbaa !42
  %70 = load i32, ptr %14, align 4, !tbaa !32
  %71 = call i32 (i32, i64, ...) %69(i32 noundef %70, i64 noundef 2154321408, ptr noundef %13)
  %72 = icmp slt i32 %71, 0
  br i1 %72, label %73, label %81

73:                                               ; preds = %66
  %74 = call ptr @__errno_location() #11
  %75 = load i32, ptr %74, align 4, !tbaa !32
  %76 = sub nsw i32 0, %75
  store i32 %76, ptr %9, align 4, !tbaa !32
  %77 = load ptr, ptr %4, align 8, !tbaa !13
  call void @llvm.memset.p0.i64(ptr align 1 %17, i8 0, i64 64, i1 false)
  %78 = getelementptr inbounds [64 x i8], ptr %17, i64 0, i64 0
  %79 = load i32, ptr %9, align 4, !tbaa !32
  %80 = call ptr @av_make_error_string(ptr noundef %78, i64 noundef 64, i32 noundef %79)
  call void (ptr, i32, ptr, ...) @av_log(ptr noundef %77, i32 noundef 16, ptr noundef @.str.51, ptr noundef %80)
  br label %121

81:                                               ; preds = %66
  %82 = call noalias ptr @av_mallocz(i64 noundef 32)
  store ptr %82, ptr %12, align 8, !tbaa !95
  %83 = load ptr, ptr %12, align 8, !tbaa !95
  %84 = icmp ne ptr %83, null
  br i1 %84, label %86, label %85

85:                                               ; preds = %81
  store i32 -12, ptr %9, align 4, !tbaa !32
  br label %121

86:                                               ; preds = %81
  %87 = getelementptr inbounds [256 x i8], ptr %16, i64 0, i64 0
  %88 = call noalias ptr @av_strdup(ptr noundef %87)
  %89 = load ptr, ptr %12, align 8, !tbaa !95
  %90 = getelementptr inbounds nuw %struct.AVDeviceInfo, ptr %89, i32 0, i32 0
  store ptr %88, ptr %90, align 8, !tbaa !99
  %91 = getelementptr inbounds nuw %struct.v4l2_capability, ptr %13, i32 0, i32 1
  %92 = getelementptr inbounds [32 x i8], ptr %91, i64 0, i64 0
  %93 = call noalias ptr @av_strdup(ptr noundef %92)
  %94 = load ptr, ptr %12, align 8, !tbaa !95
  %95 = getelementptr inbounds nuw %struct.AVDeviceInfo, ptr %94, i32 0, i32 1
  store ptr %93, ptr %95, align 8, !tbaa !101
  %96 = load ptr, ptr %12, align 8, !tbaa !95
  %97 = getelementptr inbounds nuw %struct.AVDeviceInfo, ptr %96, i32 0, i32 0
  %98 = load ptr, ptr %97, align 8, !tbaa !99
  %99 = icmp ne ptr %98, null
  br i1 %99, label %100, label %105

100:                                              ; preds = %86
  %101 = load ptr, ptr %12, align 8, !tbaa !95
  %102 = getelementptr inbounds nuw %struct.AVDeviceInfo, ptr %101, i32 0, i32 1
  %103 = load ptr, ptr %102, align 8, !tbaa !101
  %104 = icmp ne ptr %103, null
  br i1 %104, label %106, label %105

105:                                              ; preds = %100, %86
  store i32 -12, ptr %9, align 4, !tbaa !32
  br label %121

106:                                              ; preds = %100
  %107 = load ptr, ptr %5, align 8, !tbaa !89
  %108 = getelementptr inbounds nuw %struct.AVDeviceInfoList, ptr %107, i32 0, i32 0
  %109 = load ptr, ptr %5, align 8, !tbaa !89
  %110 = getelementptr inbounds nuw %struct.AVDeviceInfoList, ptr %109, i32 0, i32 1
  %111 = load ptr, ptr %12, align 8, !tbaa !95
  %112 = call i32 @av_dynarray_add_nofree(ptr noundef %108, ptr noundef %110, ptr noundef %111)
  store i32 %112, ptr %9, align 4, !tbaa !32
  %113 = icmp slt i32 %112, 0
  br i1 %113, label %114, label %115

114:                                              ; preds = %106
  br label %121

115:                                              ; preds = %106
  %116 = load ptr, ptr %6, align 8, !tbaa !30
  %117 = getelementptr inbounds nuw %struct.video_data, ptr %116, i32 0, i32 26
  %118 = load ptr, ptr %117, align 8, !tbaa !83
  %119 = load i32, ptr %14, align 4, !tbaa !32
  %120 = call i32 %118(i32 noundef %119)
  store i32 2, ptr %10, align 4
  br label %135, !llvm.loop !97

121:                                              ; preds = %114, %105, %85, %73
  %122 = load ptr, ptr %12, align 8, !tbaa !95
  %123 = icmp ne ptr %122, null
  br i1 %123, label %124, label %129

124:                                              ; preds = %121
  %125 = load ptr, ptr %12, align 8, !tbaa !95
  %126 = getelementptr inbounds nuw %struct.AVDeviceInfo, ptr %125, i32 0, i32 0
  call void @av_freep(ptr noundef %126)
  %127 = load ptr, ptr %12, align 8, !tbaa !95
  %128 = getelementptr inbounds nuw %struct.AVDeviceInfo, ptr %127, i32 0, i32 1
  call void @av_freep(ptr noundef %128)
  call void @av_freep(ptr noundef %12)
  br label %129

129:                                              ; preds = %124, %121
  %130 = load ptr, ptr %6, align 8, !tbaa !30
  %131 = getelementptr inbounds nuw %struct.video_data, ptr %130, i32 0, i32 26
  %132 = load ptr, ptr %131, align 8, !tbaa !83
  %133 = load i32, ptr %14, align 4, !tbaa !32
  %134 = call i32 %132(i32 noundef %133)
  store i32 3, ptr %10, align 4
  br label %135

135:                                              ; preds = %129, %115, %65, %58, %48
  call void @llvm.lifetime.end.p0(i64 256, ptr %16) #10
  call void @llvm.lifetime.end.p0(i64 4, ptr %15) #10
  call void @llvm.lifetime.end.p0(i64 4, ptr %14) #10
  call void @llvm.lifetime.end.p0(i64 104, ptr %13) #10
  call void @llvm.lifetime.end.p0(i64 8, ptr %12) #10
  %136 = load i32, ptr %10, align 4
  switch i32 %136, label %143 [
    i32 2, label %38
    i32 3, label %137
  ]

137:                                              ; preds = %135, %38
  %138 = load ptr, ptr %7, align 8, !tbaa !91
  %139 = call i32 @closedir(ptr noundef %138)
  %140 = load i32, ptr %9, align 4, !tbaa !32
  store i32 %140, ptr %3, align 4
  store i32 1, ptr %10, align 4
  br label %141

141:                                              ; preds = %137, %28, %23
  call void @llvm.lifetime.end.p0(i64 4, ptr %9) #10
  call void @llvm.lifetime.end.p0(i64 8, ptr %8) #10
  call void @llvm.lifetime.end.p0(i64 8, ptr %7) #10
  call void @llvm.lifetime.end.p0(i64 8, ptr %6) #10
  %142 = load i32, ptr %3, align 4
  ret i32 %142

143:                                              ; preds = %135
  unreachable
}