; Function Attrs: nounwind uwtable
define internal i32 @v4l2_get_device_list(ptr noundef %0, ptr noundef %1) #0 {
  %3 = alloca [64 x i8], align 1
  %4 = alloca ptr, align 8
  %5 = alloca %struct.v4l2_capability, align 4
  %6 = alloca [256 x i8], align 16
  %7 = alloca [64 x i8], align 1
  %8 = getelementptr inbounds nuw i8, ptr %0, i64 24
  %9 = load ptr, ptr %8, align 8, !tbaa !11
  %.not = icmp eq ptr %1, null
  br i1 %.not, label %70, label %10

10:                                               ; preds = %2
  %11 = tail call noalias ptr @opendir(ptr noundef nonnull @.str.107)
  %.not33 = icmp eq ptr %11, null
  br i1 %.not33, label %17, label %.preheader

.preheader:                                       ; preds = %10
  %12 = tail call ptr @readdir64(ptr noundef nonnull %11) #11
  %.not3460 = icmp eq ptr %12, null
  br i1 %.not3460, label %.loopexit, label %.lr.ph

.lr.ph:                                           ; preds = %.preheader
  %13 = getelementptr inbounds nuw i8, ptr %9, i64 168
  %14 = getelementptr inbounds nuw i8, ptr %5, i64 16
  %15 = getelementptr inbounds nuw i8, ptr %1, i64 8
  %16 = getelementptr inbounds nuw i8, ptr %9, i64 152
  br label %22

17:                                               ; preds = %10
  %18 = tail call ptr @__errno_location() #12
  %19 = load i32, ptr %18, align 4, !tbaa !26
  %20 = sub nsw i32 0, %19
  call void @llvm.memset.p0.i64(ptr noundef nonnull align 1 dereferenceable(64) %3, i8 0, i64 64, i1 false)
  %21 = call i32 @av_strerror(i32 noundef range(i32 -2147483647, -2147483648) %20, ptr noundef nonnull %3, i64 noundef 64) #11
  call void (ptr, i32, ptr, ...) @av_log(ptr noundef nonnull %0, i32 noundef 16, ptr noundef nonnull @.str.108, ptr noundef nonnull %3) #11
  br label %70

22:                                               ; preds = %.lr.ph, %67
  %23 = phi ptr [ %12, %.lr.ph ], [ %68, %67 ]
  %.02661 = phi i32 [ 0, %.lr.ph ], [ %.2, %67 ]
  call void @llvm.lifetime.start.p0(i64 8, ptr nonnull %4) #11
  store ptr null, ptr %4, align 8, !tbaa !127
  call void @llvm.lifetime.start.p0(i64 104, ptr nonnull %5) #11
  call void @llvm.lifetime.start.p0(i64 256, ptr nonnull %6) #11
  %24 = getelementptr inbounds nuw i8, ptr %23, i64 19
  %25 = call i32 @strncmp(ptr noundef nonnull readonly dereferenceable(1) %24, ptr noundef nonnull dereferenceable(6) @.str.111, i64 noundef 5) #14
  %.not.i = icmp eq i32 %25, 0
  br i1 %.not.i, label %v4l2_is_v4l_dev.exit.thread, label %26

26:                                               ; preds = %22
  %27 = call i32 @strncmp(ptr noundef nonnull readonly dereferenceable(1) %24, ptr noundef nonnull dereferenceable(6) @.str.112, i64 noundef 5) #14
  %.not4.i = icmp eq i32 %27, 0
  br i1 %.not4.i, label %v4l2_is_v4l_dev.exit.thread, label %sub_0.i

sub_0.i:                                          ; preds = %26
  %28 = load i8, ptr %24, align 1
  %.not7.i = icmp eq i8 %28, 118
  br i1 %.not7.i, label %sub_1.i, label %v4l2_is_v4l_dev.exit

sub_1.i:                                          ; preds = %sub_0.i
  %29 = getelementptr inbounds nuw i8, ptr %23, i64 20
  %30 = load i8, ptr %29, align 1
  %.not8.i = icmp eq i8 %30, 98
  br i1 %.not8.i, label %.tail.i, label %v4l2_is_v4l_dev.exit

.tail.i:                                          ; preds = %sub_1.i
  %31 = getelementptr inbounds nuw i8, ptr %23, i64 21
  %32 = load i8, ptr %31, align 1
  %33 = icmp eq i8 %32, 105
  br i1 %33, label %v4l2_is_v4l_dev.exit.thread, label %v4l2_is_v4l_dev.exit

v4l2_is_v4l_dev.exit:                             ; preds = %sub_0.i, %sub_1.i, %.tail.i
  %34 = call i32 @strncmp(ptr noundef nonnull readonly dereferenceable(1) %24, ptr noundef nonnull dereferenceable(11) @.str.114, i64 noundef 10) #14
  %.not6.i.not = icmp eq i32 %34, 0
  br i1 %.not6.i.not, label %v4l2_is_v4l_dev.exit.thread, label %67, !llvm.loop !129

v4l2_is_v4l_dev.exit.thread:                      ; preds = %22, %26, %.tail.i, %v4l2_is_v4l_dev.exit
  %35 = call i32 (ptr, i64, ptr, ...) @snprintf(ptr noundef nonnull dereferenceable(1) %6, i64 noundef 256, ptr noundef nonnull @.str.109, ptr noundef nonnull %24) #11
  %36 = icmp ugt i32 %35, 255
  br i1 %36, label %37, label %38

37:                                               ; preds = %v4l2_is_v4l_dev.exit.thread
  call void (ptr, i32, ptr, ...) @av_log(ptr noundef %0, i32 noundef 16, ptr noundef nonnull @.str.110) #11
  br label %.thread44

38:                                               ; preds = %v4l2_is_v4l_dev.exit.thread
  %39 = call fastcc i32 @device_open(ptr noundef %0, ptr noundef nonnull %6)
  %40 = icmp slt i32 %39, 0
  br i1 %40, label %67, label %41, !llvm.loop !129

41:                                               ; preds = %38
  %42 = load ptr, ptr %13, align 8, !tbaa !34
  %43 = call i32 (i32, i64, ...) %42(i32 noundef %39, i64 noundef 2154321408, ptr noundef nonnull %5) #11
  %44 = icmp slt i32 %43, 0
  br i1 %44, label %.loopexit49, label %45

45:                                               ; preds = %41
  %46 = call noalias ptr @av_mallocz(i64 noundef 32) #11
  store ptr %46, ptr %4, align 8, !tbaa !127
  %.not36 = icmp eq ptr %46, null
  br i1 %.not36, label %.thread, label %47

47:                                               ; preds = %45
  %48 = call noalias ptr @av_strdup(ptr noundef nonnull %6) #11
  store ptr %48, ptr %46, align 8, !tbaa !130
  %49 = call noalias ptr @av_strdup(ptr noundef nonnull %14) #11
  %50 = getelementptr inbounds nuw i8, ptr %46, i64 8
  store ptr %49, ptr %50, align 8, !tbaa !132
  %51 = load ptr, ptr %46, align 8, !tbaa !130
  %.not37 = icmp eq ptr %51, null
  %.not38 = icmp eq ptr %49, null
  %or.cond = select i1 %.not37, i1 true, i1 %.not38
  br i1 %or.cond, label %.loopexit49.thread, label %52

52:                                               ; preds = %47
  %53 = call i32 @av_dynarray_add_nofree(ptr noundef nonnull %1, ptr noundef nonnull %15, ptr noundef nonnull %46) #11
  %54 = icmp slt i32 %53, 0
  br i1 %54, label %.loopexit49.thread, label %55

55:                                               ; preds = %52
  %56 = load ptr, ptr %16, align 8, !tbaa !90
  %57 = call i32 %56(i32 noundef %39) #11
  br label %67, !llvm.loop !129

.loopexit49:                                      ; preds = %41
  %58 = tail call ptr @__errno_location() #12
  %59 = load i32, ptr %58, align 4, !tbaa !26
  %60 = sub nsw i32 0, %59
  call void @llvm.memset.p0.i64(ptr noundef nonnull align 1 dereferenceable(64) %7, i8 0, i64 64, i1 false)
  %61 = call i32 @av_strerror(i32 noundef range(i32 -2147483647, -2147483648) %60, ptr noundef nonnull %7, i64 noundef 64) #11
  call void (ptr, i32, ptr, ...) @av_log(ptr noundef %0, i32 noundef 16, ptr noundef nonnull @.str.51, ptr noundef nonnull %7) #11
  %.pr.pre = load ptr, ptr %4, align 8, !tbaa !127
  %.not39 = icmp eq ptr %.pr.pre, null
  br i1 %.not39, label %.thread, label %.loopexit49.thread

.loopexit49.thread:                               ; preds = %47, %52, %.loopexit49
  %.370 = phi i32 [ %60, %.loopexit49 ], [ %53, %52 ], [ -12, %47 ]
  %62 = phi ptr [ %.pr.pre, %.loopexit49 ], [ %46, %52 ], [ %46, %47 ]
  call void @av_freep(ptr noundef nonnull %62) #11
  %63 = load ptr, ptr %4, align 8, !tbaa !127
  %64 = getelementptr inbounds nuw i8, ptr %63, i64 8
  call void @av_freep(ptr noundef nonnull %64) #11
  call void @av_freep(ptr noundef nonnull %4) #11
  br label %.thread

.thread:                                          ; preds = %45, %.loopexit49.thread, %.loopexit49
  %.343 = phi i32 [ %.370, %.loopexit49.thread ], [ %60, %.loopexit49 ], [ -12, %45 ]
  %65 = load ptr, ptr %16, align 8, !tbaa !90
  %66 = call i32 %65(i32 noundef %39) #11
  br label %.thread44

.thread44:                                        ; preds = %37, %.thread
  %.2.ph = phi i32 [ %.343, %.thread ], [ -38, %37 ]
  call void @llvm.lifetime.end.p0(i64 256, ptr nonnull %6) #11
  call void @llvm.lifetime.end.p0(i64 104, ptr nonnull %5) #11
  call void @llvm.lifetime.end.p0(i64 8, ptr nonnull %4) #11
  br label %.loopexit

67:                                               ; preds = %38, %v4l2_is_v4l_dev.exit, %55
  %.2 = phi i32 [ %53, %55 ], [ %.02661, %v4l2_is_v4l_dev.exit ], [ %.02661, %38 ]
  call void @llvm.lifetime.end.p0(i64 256, ptr nonnull %6) #11
  call void @llvm.lifetime.end.p0(i64 104, ptr nonnull %5) #11
  call void @llvm.lifetime.end.p0(i64 8, ptr nonnull %4) #11
  %68 = call ptr @readdir64(ptr noundef nonnull %11) #11
  %.not34 = icmp eq ptr %68, null
  br i1 %.not34, label %.loopexit, label %22

.loopexit:                                        ; preds = %67, %.preheader, %.thread44
  %.1 = phi i32 [ %.2.ph, %.thread44 ], [ 0, %.preheader ], [ %.2, %67 ]
  %69 = call i32 @closedir(ptr noundef nonnull %11)
  br label %70

70:                                               ; preds = %2, %.loopexit, %17
  %.0 = phi i32 [ %.1, %.loopexit ], [ %20, %17 ], [ -22, %2 ]
  ret i32 %.0
}